; ModuleID = 'source-C-CXX/27/141.c'
source_filename = "source-C-CXX/27/141.c"
target datalayout = "e-m:e-p270:32:32-p271:32:32-p272:64:64-i64:64-f80:128-n8:16:32:64-S128"
target triple = "x86_64-pc-linux-gnu"

@.str = private unnamed_addr constant [3 x i8] c"%d\00", align 1
@.str.1 = private unnamed_addr constant [4 x i8] c",%d\00", align 1

; Function Attrs: nounwind sspstrong uwtable
define dso_local i32 @main() local_unnamed_addr #0 {
  %1 = alloca [1000 x i8], align 16
  %2 = alloca [300 x i32], align 16
  %3 = getelementptr inbounds [1000 x i8], [1000 x i8]* %1, i64 0, i64 0
  call void @llvm.lifetime.start.p0i8(i64 1000, i8* nonnull %3) #4
  %4 = bitcast [300 x i32]* %2 to i8*
  call void @llvm.lifetime.start.p0i8(i64 1200, i8* nonnull %4) #4
  %5 = call i32 (i8*, ...) bitcast (i32 (...)* @gets to i32 (i8*, ...)*)(i8* nonnull %3) #4
  br label %6

6:                                                ; preds = %23, %0
  %7 = phi i8* [ %3, %0 ], [ %14, %23 ]
  %8 = phi i32 [ 0, %0 ], [ %25, %23 ]
  %9 = phi i32 [ 0, %0 ], [ %26, %23 ]
  br label %10

10:                                               ; preds = %10, %6
  %11 = phi i8* [ %7, %6 ], [ %14, %10 ]
  %12 = load i8, i8* %11, align 1, !tbaa !5
  %13 = icmp eq i8 %12, 32
  %14 = getelementptr inbounds i8, i8* %11, i64 1
  br i1 %13, label %10, label %15, !llvm.loop !8

15:                                               ; preds = %10
  %16 = add nsw i32 %9, 1
  %17 = load i8, i8* %14, align 1, !tbaa !5
  switch i8 %17, label %23 [
    i8 32, label %18
    i8 0, label %18
  ]

18:                                               ; preds = %15, %15
  %19 = sext i32 %8 to i64
  %20 = getelementptr inbounds [300 x i32], [300 x i32]* %2, i64 0, i64 %19
  store i32 %16, i32* %20, align 4, !tbaa !10
  %21 = add nsw i32 %8, 1
  %22 = load i8, i8* %14, align 1, !tbaa !5
  br label %23

23:                                               ; preds = %15, %18
  %24 = phi i8 [ %17, %15 ], [ %22, %18 ]
  %25 = phi i32 [ %8, %15 ], [ %21, %18 ]
  %26 = phi i32 [ %16, %15 ], [ 0, %18 ]
  %27 = icmp eq i8 %24, 0
  br i1 %27, label %28, label %6, !llvm.loop !12

28:                                               ; preds = %23
  %29 = getelementptr inbounds [300 x i32], [300 x i32]* %2, i64 0, i64 0
  %30 = load i32, i32* %29, align 16, !tbaa !10
  %31 = call i32 (i8*, ...) @printf(i8* nonnull dereferenceable(1) getelementptr inbounds ([3 x i8], [3 x i8]* @.str, i64 0, i64 0), i32 %30)
  %32 = icmp sgt i32 %25, 1
  br i1 %32, label %33, label %42

33:                                               ; preds = %28
  %34 = zext i32 %25 to i64
  br label %35

35:                                               ; preds = %33, %35
  %36 = phi i64 [ 1, %33 ], [ %40, %35 ]
  %37 = getelementptr inbounds [300 x i32], [300 x i32]* %2, i64 0, i64 %36
  %38 = load i32, i32* %37, align 4, !tbaa !10
  %39 = call i32 (i8*, ...) @printf(i8* nonnull dereferenceable(1) getelementptr inbounds ([4 x i8], [4 x i8]* @.str.1, i64 0, i64 0), i32 %38)
  %40 = add nuw nsw i64 %36, 1
  %41 = icmp eq i64 %40, %34
  br i1 %41, label %42, label %35, !llvm.loop !13

42:                                               ; preds = %35, %28
  call void @llvm.lifetime.end.p0i8(i64 1200, i8* nonnull %4) #4
  call void @llvm.lifetime.end.p0i8(i64 1000, i8* nonnull %3) #4
  ret i32 0
}

; Function Attrs: argmemonly mustprogress nofree nosync nounwind willreturn
declare void @llvm.lifetime.start.p0i8(i64 immarg, i8* nocapture) #1

declare i32 @gets(...) local_unnamed_addr #2

; Function Attrs: nofree nounwind
declare noundef i32 @printf(i8* nocapture noundef readonly, ...) local_unnamed_addr #3

; Function Attrs: argmemonly mustprogress nofree nosync nounwind willreturn
declare void @llvm.lifetime.end.p0i8(i64 immarg, i8* nocapture) #1


!llvm.module.flags = !{!0, !1, !2, !3}
!llvm.ident = !{!4}

!0 = !{i32 1, !"wchar_size", i32 4}
!1 = !{i32 7, !"PIC Level", i32 2}
!2 = !{i32 7, !"PIE Level", i32 2}
!3 = !{i32 7, !"uwtable", i32 1}
!4 = !{!"clang version 13.0.0"}
!5 = !{!6, !6, i64 0}
!6 = !{!"omnipotent char", !7, i64 0}
!7 = !{!"Simple C/C++ TBAA"}
!8 = distinct !{!8, !9}
!9 = !{!"llvm.loop.mustprogress"}
!10 = !{!11, !11, i64 0}
!11 = !{!"int", !6, i64 0}
!12 = distinct !{!12, !9}
!13 = distinct !{!13, !9}
